; Function Attrs: nounwind uwtable
define internal fastcc void @cqueue_free(ptr noundef %0) unnamed_addr #1 {
  %.not = icmp eq ptr %0, null
  br i1 %.not, label %4, label %2

2:                                                ; preds = %1
  %3 = load ptr, ptr %0, align 8, !tbaa !54
  tail call void @av_free(ptr noundef %3) #15
  br label %4

4:                                                ; preds = %2, %1
  tail call void @av_free(ptr noundef %0) #15
  ret void
}